Certificate:
    Data:
        Version: 3 (0x2)
        Serial Number: 1 (0x1)
        Signature Algorithm: sha256WithRSAEncryption
        Issuer: C=AU, ST=Some-State, O=Internet Widgits Pty Ltd, CN=Common Name
        Validity
            Not Before: Jul  2 02:22:18 2019 GMT
            Not After : Jul  1 02:22:18 2020 GMT
        Subject: C=AU, ST=Some-State, O=Internet Widgits Pty Ltd, CN=Common Name
        Subject Public Key Info:
            Public Key Algorithm: rsaEncryption
                RSA Public-Key: (1024 bit)
                Modulus:
                    00:be:ad:2c:24:21:1d:b4:40:be:21:36:2e:e8:63:
                    8a:7a:84:47:30:30:db:d5:e3:bc:3d:a7:4a:16:80:
                    d0:ac:72:53:14:2f:d6:0e:7a:ec:5b:81:7f:bc:0b:
                    8d:c6:7f:64:45:45:e9:18:05:f9:7a:5c:2c:d9:7a:
                    76:bb:a8:ed:4b:c4:25:00:16:b6:d3:a9:87:af:92:
                    c7:72:15:39:db:94:f2:df:0b:9d:fd:c2:05:b9:11:
                    7d:4b:45:60:f2:7a:1a:28:a5:8f:2d:6a:20:03:74:
                    89:01:31:7b:5c:97:aa:17:71:fe:26:f4:ba:c2:98:
                    a4:91:e9:7e:c4:f9:e8:dc:2b
                Exponent: 65537 (0x10001)
        X509v3 extensions:
            X509v3 Basic Constraints: 
                CA:FALSE
            Netscape Comment: 
                OpenSSL Generated Certificate
            X509v3 Subject Key Identifier: 
                01:EC:F2:6D:8C:19:A9:27:AE:16:3E:AE:13:78:FE:CD:42:53:11:E3
            X509v3 Authority Key Identifier: 
                keyid:2A:0C:82:36:10:AA:29:61:12:7E:BA:6A:FD:9C:C6:7A:5A:D0:F5:95

    Signature Algorithm: sha256WithRSAEncryption
         9b:40:cc:fd:cc:07:4c:f9:2d:27:4b:04:a5:b9:34:a5:d0:c9:
         6e:3b:69:48:18:5c:a5:0f:f6:da:08:41:4b:c7:3d:e5:d6:55:
         09:cb:dd:7b:48:a5:63:72:70:67:cd:4d:4e:8d:47:e0:18:97:
         56:82:6a:cc:51:3b:3d:62:bf:20:aa:2d:80:7d:ce:e3:97:71:
         01:9f:85:be:ae:5a:dc:ab:10:6e:cf:1f:b8:dc:ee:3a:e6:2d:
         a0:b5:29:9a:d4:bd:9a:f0:ca:db:a4:c0:f5:b8:e6:c2:f7:9d:
         97:72:62:0c:1e:8b:a8:4c:48:22:fe:a9:a3:3f:94:68:77:69:
         8b:75
-----BEGIN CERTIFICATE-----
MIICpzCCAhCgAwIBAgIBATANBgkqhkiG9w0BAQsFADBbMQswCQYDVQQGEwJBVTET
MBEGA1UECAwKU29tZS1TdGF0ZTEhMB8GA1UECgwYSW50ZXJuZXQgV2lkZ2l0cyBQ
dHkgTHRkMRQwEgYDVQQDDAtDb21tb24gTmFtZTAeFw0xOTA3MDIwMjIyMThaFw0y
MDA3MDEwMjIyMThaMFsxCzAJBgNVBAYTAkFVMRMwEQYDVQQIDApTb21lLVN0YXRl
MSEwHwYDVQQKDBhJbnRlcm5ldCBXaWRnaXRzIFB0eSBMdGQxFDASBgNVBAMMC0Nv
bW1vbiBOYW1lMIGfMA0GCSqGSIb3DQEBAQUAA4GNADCBiQKBgQC+rSwkIR20QL4h
Ni7oY4p6hEcwMNvV47w9p0oWgNCsclMUL9YOeuxbgX+8C43Gf2RFRekYBfl6XCzZ
ena7qO1LxCUAFrbTqYevksdyFTnblPLfC539wgW5EX1LRWDyehoopY8taiADdIkB
MXtcl6oXcf4m9LrCmKSR6X7E+ejcKwIDAQABo3sweTAJBgNVHRMEAjAAMCwGCWCG
SAGG+EIBDQQfFh1PcGVuU1NMIEdlbmVyYXRlZCBDZXJ0aWZpY2F0ZTAdBgNVHQ4E
FgQUAezybYwZqSeuFj6uE3j+zUJTEeMwHwYDVR0jBBgwFoAUKgyCNhCqKWESfrpq
/ZzGelrQ9ZUwDQYJKoZIhvcNAQELBQADgYEAm0DM/cwHTPktJ0sEpbk0pdDJbjtp
SBhcpQ/22ghBS8c95dZVCcvde0ilY3JwZ81NTo1H4BiXVoJqzFE7PWK/IKotgH3O
45dxAZ+Fvq5a3KsQbs8fuNzuOuYtoLUpmtS9mvDK26TA9bjmwvedl3JiDB6LqExI
Iv6poz+UaHdpi3U=
-----END CERTIFICATE-----
